; Function Attrs: mustprogress uwtable
define internal void @_ZN9grpc_core12_GLOBAL__N_116XdsClusterImplLb6Picker21SubchannelCallTracker5StartEv(ptr noundef nonnull readonly align 8 captures(none) dereferenceable(32) %0) unnamed_addr #6 align 2 {
  %2 = getelementptr inbounds nuw i8, ptr %0, i64 24
  %.val = load ptr, ptr %2, align 8, !tbaa !101
  %3 = getelementptr inbounds nuw i8, ptr %.val, i64 80
  %4 = atomicrmw add ptr %3, i32 1 seq_cst, align 4
  %5 = getelementptr inbounds nuw i8, ptr %0, i64 16
  %6 = load ptr, ptr %5, align 8, !tbaa !454
  %.not = icmp eq ptr %6, null
  br i1 %.not, label %8, label %7

7:                                                ; preds = %1
  tail call void @_ZN9grpc_core9LrsClient20ClusterLocalityStats14AddCallStartedEv(ptr noundef nonnull align 8 dereferenceable(112) %6)
  br label %8

8:                                                ; preds = %7, %1
  %9 = getelementptr inbounds nuw i8, ptr %0, i64 8
  %10 = load ptr, ptr %9, align 8, !tbaa !339
  %.not1 = icmp eq ptr %10, null
  br i1 %.not1, label %15, label %11

11:                                               ; preds = %8
  %12 = load ptr, ptr %10, align 8, !tbaa !6
  %13 = getelementptr inbounds nuw i8, ptr %12, i64 16
  %14 = load ptr, ptr %13, align 8
  tail call void %14(ptr noundef nonnull align 8 dereferenceable(8) %10)
  br label %15

15:                                               ; preds = %11, %8
  ret void
}